; Function Attrs: mustprogress uwtable
define noundef zeroext i1 @_ZNK8proxygen11HTTPSession10isUpstreamEv(ptr nocapture noundef nonnull readonly align 8 dereferenceable(2504) %this) local_unnamed_addr #3 align 2 {
entry:
  %call_.i.i = getelementptr inbounds i8, ptr %this, i64 992
  %0 = load ptr, ptr %call_.i.i, align 8
  %vtable = load ptr, ptr %0, align 8
  %vfn = getelementptr inbounds i8, ptr %vtable, i64 40
  %1 = load ptr, ptr %vfn, align 8
  %call2 = tail call noundef zeroext i8 %1(ptr noundef nonnull align 8 dereferenceable(8) %0)
  %cmp = icmp eq i8 %call2, 1
  ret i1 %cmp
}